target datalayout = "e-m:e-p270:32:32-p271:32:32-p272:64:64-i64:64-i128:128-f80:128-n8:16:32:64-S128"
target triple = "x86_64-pc-linux-gnu"

%struct.ident_t = type { i32, i32, i32, i32, ptr }
%"class.ncnn::Mat" = type { ptr, ptr, i64, i32, ptr, i32, i32, i32, i32, i32, i64 }

@1 = private unnamed_addr constant %struct.ident_t { i32 0, i32 514, i32 0, i32 22, ptr @0 }, align 8

; Function Attrs: alwaysinline mustprogress nounwind uwtable
define linkonce_odr hidden noundef nonnull align 4 dereferenceable(4) ptr @_ZN4ncnn3MatixEm(ptr noundef nonnull align 8 dereferenceable(72) %0, i64 noundef %1) #3 comdat align 2 {
  %3 = alloca ptr, align 8
  %4 = alloca i64, align 8
  store ptr %0, ptr %3, align 8, !tbaa !44
  store i64 %1, ptr %4, align 8, !tbaa !68
  %5 = load ptr, ptr %3, align 8
  %6 = getelementptr inbounds nuw %"class.ncnn::Mat", ptr %5, i32 0, i32 0
  %7 = load ptr, ptr %6, align 8, !tbaa !57
  %8 = load i64, ptr %4, align 8, !tbaa !68
  %9 = getelementptr inbounds nuw float, ptr %7, i64 %8
  ret ptr %9
}

; Function Attrs: alwaysinline mustprogress nounwind uwtable
define linkonce_odr hidden noundef nonnull align 4 dereferenceable(4) ptr @_ZNK4ncnn3MatixEm(ptr noundef nonnull align 8 dereferenceable(72) %0, i64 noundef %1) #3 comdat align 2 {
  %3 = alloca ptr, align 8
  %4 = alloca i64, align 8
  store ptr %0, ptr %3, align 8, !tbaa !44
  store i64 %1, ptr %4, align 8, !tbaa !68
  %5 = load ptr, ptr %3, align 8
  %6 = getelementptr inbounds nuw %"class.ncnn::Mat", ptr %5, i32 0, i32 0
  %7 = load ptr, ptr %6, align 8, !tbaa !57
  %8 = load i64, ptr %4, align 8, !tbaa !68
  %9 = getelementptr inbounds nuw float, ptr %7, i64 %8
  ret ptr %9
}

; Function Attrs: alwaysinline mustprogress nounwind uwtable
define linkonce_odr hidden noundef ptr @_ZNK4ncnn3Mat3rowEi(ptr noundef nonnull align 8 dereferenceable(72) %0, i32 noundef %1) #3 comdat align 2 {
  %3 = alloca ptr, align 8
  %4 = alloca i32, align 4
  store ptr %0, ptr %3, align 8, !tbaa !44
  store i32 %1, ptr %4, align 4, !tbaa !39
  %5 = load ptr, ptr %3, align 8
  %6 = getelementptr inbounds nuw %"class.ncnn::Mat", ptr %5, i32 0, i32 0
  %7 = load ptr, ptr %6, align 8, !tbaa !57
  %8 = getelementptr inbounds nuw %"class.ncnn::Mat", ptr %5, i32 0, i32 6
  %9 = load i32, ptr %8, align 4, !tbaa !63
  %10 = sext i32 %9 to i64
  %11 = load i32, ptr %4, align 4, !tbaa !39
  %12 = sext i32 %11 to i64
  %13 = mul i64 %10, %12
  %14 = getelementptr inbounds nuw %"class.ncnn::Mat", ptr %5, i32 0, i32 2
  %15 = load i64, ptr %14, align 8, !tbaa !59
  %16 = mul i64 %13, %15
  %17 = getelementptr inbounds nuw i8, ptr %7, i64 %16
  ret ptr %17
}

; Function Attrs: alwaysinline norecurse nounwind uwtable
define internal void @_ZN4ncnnL3rnnERKNS_3MatERS0_iS2_S2_S2_S3_RKNS_6OptionE.omp_outlined(ptr noalias noundef %0, ptr noalias noundef %1, ptr noundef nonnull align 4 dereferenceable(4) %2, ptr noundef nonnull align 8 dereferenceable(72) %3, ptr noundef nonnull align 8 dereferenceable(72) %4, ptr noundef nonnull align 8 dereferenceable(72) %5, ptr noundef nonnull align 4 dereferenceable(4) %6, ptr noundef nonnull align 8 dereferenceable(8) %7, ptr noundef nonnull align 8 dereferenceable(72) %8, ptr noundef nonnull align 8 dereferenceable(72) %9) #9 {
  %11 = alloca ptr, align 8
  %12 = alloca ptr, align 8
  %13 = alloca ptr, align 8
  %14 = alloca ptr, align 8
  %15 = alloca ptr, align 8
  %16 = alloca ptr, align 8
  %17 = alloca ptr, align 8
  %18 = alloca ptr, align 8
  %19 = alloca ptr, align 8
  %20 = alloca ptr, align 8
  %21 = alloca ptr, align 8
  %22 = alloca ptr, align 8
  %23 = alloca ptr, align 8
  %24 = alloca ptr, align 8
  %25 = alloca i32, align 4
  %26 = alloca i32, align 4
  %27 = alloca i32, align 4
  %28 = alloca i32, align 4
  %29 = alloca i32, align 4
  %30 = alloca i32, align 4
  %31 = alloca i32, align 4
  %32 = alloca i32, align 4
  %33 = alloca i32, align 4
  %34 = alloca ptr, align 8
  %35 = alloca ptr, align 8
  %36 = alloca float, align 4
  %37 = alloca i32, align 4
  %38 = alloca i32, align 4
  store ptr %0, ptr %11, align 8, !tbaa !84
  store ptr %1, ptr %12, align 8, !tbaa !84
  store ptr %2, ptr %13, align 8, !tbaa !84
  store ptr %3, ptr %14, align 8, !tbaa !44
  store ptr %4, ptr %15, align 8, !tbaa !44
  store ptr %5, ptr %16, align 8, !tbaa !44
  store ptr %6, ptr %17, align 8, !tbaa !84
  store ptr %7, ptr %18, align 8, !tbaa !85
  store ptr %8, ptr %19, align 8, !tbaa !44
  store ptr %9, ptr %20, align 8, !tbaa !44
  %39 = load ptr, ptr %13, align 8, !tbaa !84
  %40 = load ptr, ptr %14, align 8, !tbaa !44
  %41 = load ptr, ptr %15, align 8, !tbaa !44
  %42 = load ptr, ptr %16, align 8, !tbaa !44
  %43 = load ptr, ptr %17, align 8, !tbaa !84
  %44 = load ptr, ptr %18, align 8, !tbaa !85
  %45 = load ptr, ptr %19, align 8, !tbaa !44
  %46 = load ptr, ptr %20, align 8, !tbaa !44
  store ptr %40, ptr %21, align 8
  store ptr %41, ptr %22, align 8
  store ptr %42, ptr %23, align 8
  store ptr %45, ptr %24, align 8
  call void @llvm.lifetime.start.p0(i64 4, ptr %25) #10
  call void @llvm.lifetime.start.p0(i64 4, ptr %26) #10
  %47 = load i32, ptr %39, align 4, !tbaa !39
  store i32 %47, ptr %26, align 4, !tbaa !39
  call void @llvm.lifetime.start.p0(i64 4, ptr %27) #10
  %48 = load i32, ptr %26, align 4, !tbaa !39
  %49 = sub nsw i32 %48, 0
  %50 = sdiv i32 %49, 1
  %51 = sub nsw i32 %50, 1
  store i32 %51, ptr %27, align 4, !tbaa !39
  call void @llvm.lifetime.start.p0(i64 4, ptr %28) #10
  store i32 0, ptr %28, align 4, !tbaa !39
  call void @llvm.lifetime.end.p0(i64 4, ptr %28) #10
  %52 = load i32, ptr %26, align 4, !tbaa !39
  %53 = icmp slt i32 0, %52
  br i1 %53, label %54, label %148

54:                                               ; preds = %10
  call void @llvm.lifetime.start.p0(i64 4, ptr %29) #10
  store i32 0, ptr %29, align 4, !tbaa !39
  call void @llvm.lifetime.start.p0(i64 4, ptr %30) #10
  %55 = load i32, ptr %27, align 4, !tbaa !39
  store i32 %55, ptr %30, align 4, !tbaa !39
  call void @llvm.lifetime.start.p0(i64 4, ptr %31) #10
  store i32 1, ptr %31, align 4, !tbaa !39
  call void @llvm.lifetime.start.p0(i64 4, ptr %32) #10
  store i32 0, ptr %32, align 4, !tbaa !39
  call void @llvm.lifetime.start.p0(i64 4, ptr %33) #10
  %56 = load ptr, ptr %11, align 8
  %57 = load i32, ptr %56, align 4, !tbaa !39
  call void @__kmpc_for_static_init_4(ptr @1, i32 %57, i32 34, ptr %32, ptr %29, ptr %30, ptr %31, i32 1, i32 1)
  %58 = load i32, ptr %30, align 4, !tbaa !39
  %59 = load i32, ptr %27, align 4, !tbaa !39
  %60 = icmp sgt i32 %58, %59
  br i1 %60, label %61, label %63

61:                                               ; preds = %54
  %62 = load i32, ptr %27, align 4, !tbaa !39
  br label %65

63:                                               ; preds = %54
  %64 = load i32, ptr %30, align 4, !tbaa !39
  br label %65

65:                                               ; preds = %63, %61
  %66 = phi i32 [ %62, %61 ], [ %64, %63 ]
  store i32 %66, ptr %30, align 4, !tbaa !39
  %67 = load i32, ptr %29, align 4, !tbaa !39
  store i32 %67, ptr %25, align 4, !tbaa !39
  br label %68

68:                                               ; preds = %141, %65
  %69 = load i32, ptr %25, align 4, !tbaa !39
  %70 = load i32, ptr %30, align 4, !tbaa !39
  %71 = icmp sle i32 %69, %70
  br i1 %71, label %73, label %72

72:                                               ; preds = %68
  br label %144

73:                                               ; preds = %68
  %74 = load i32, ptr %25, align 4, !tbaa !39
  %75 = mul nsw i32 %74, 1
  %76 = add nsw i32 0, %75
  store i32 %76, ptr %33, align 4, !tbaa !39
  call void @llvm.lifetime.start.p0(i64 8, ptr %34) #10
  %77 = load ptr, ptr %21, align 8, !tbaa !44
  %78 = load i32, ptr %33, align 4, !tbaa !39
  %79 = call noundef ptr @_ZNK4ncnn3Mat3rowEi(ptr noundef nonnull align 8 dereferenceable(72) %77, i32 noundef %78)
  store ptr %79, ptr %34, align 8, !tbaa !50
  call void @llvm.lifetime.start.p0(i64 8, ptr %35) #10
  %80 = load ptr, ptr %22, align 8, !tbaa !44
  %81 = load i32, ptr %33, align 4, !tbaa !39
  %82 = call noundef ptr @_ZNK4ncnn3Mat3rowEi(ptr noundef nonnull align 8 dereferenceable(72) %80, i32 noundef %81)
  store ptr %82, ptr %35, align 8, !tbaa !50
  call void @llvm.lifetime.start.p0(i64 4, ptr %36) #10
  %83 = load ptr, ptr %23, align 8, !tbaa !44
  %84 = load i32, ptr %33, align 4, !tbaa !39
  %85 = sext i32 %84 to i64
  %86 = call noundef nonnull align 4 dereferenceable(4) ptr @_ZNK4ncnn3MatixEm(ptr noundef nonnull align 8 dereferenceable(72) %83, i64 noundef %85)
  %87 = load float, ptr %86, align 4, !tbaa !69
  store float %87, ptr %36, align 4, !tbaa !69
  call void @llvm.lifetime.start.p0(i64 4, ptr %37) #10
  store i32 0, ptr %37, align 4, !tbaa !39
  br label %88

88:                                               ; preds = %107, %73
  %89 = load i32, ptr %37, align 4, !tbaa !39
  %90 = load i32, ptr %43, align 4, !tbaa !39
  %91 = icmp slt i32 %89, %90
  br i1 %91, label %93, label %92

92:                                               ; preds = %88
  call void @llvm.lifetime.end.p0(i64 4, ptr %37) #10
  br label %110

93:                                               ; preds = %88
  %94 = load ptr, ptr %34, align 8, !tbaa !50
  %95 = load i32, ptr %37, align 4, !tbaa !39
  %96 = sext i32 %95 to i64
  %97 = getelementptr inbounds float, ptr %94, i64 %96
  %98 = load float, ptr %97, align 4, !tbaa !69
  %99 = load ptr, ptr %44, align 8, !tbaa !50
  %100 = load i32, ptr %37, align 4, !tbaa !39
  %101 = sext i32 %100 to i64
  %102 = getelementptr inbounds float, ptr %99, i64 %101
  %103 = load float, ptr %102, align 4, !tbaa !69
  %104 = fmul fast float %98, %103
  %105 = load float, ptr %36, align 4, !tbaa !69
  %106 = fadd fast float %105, %104
  store float %106, ptr %36, align 4, !tbaa !69
  br label %107

107:                                              ; preds = %93
  %108 = load i32, ptr %37, align 4, !tbaa !39
  %109 = add nsw i32 %108, 1
  store i32 %109, ptr %37, align 4, !tbaa !39
  br label %88, !llvm.loop !94

110:                                              ; preds = %92
  call void @llvm.lifetime.start.p0(i64 4, ptr %38) #10
  store i32 0, ptr %38, align 4, !tbaa !39
  br label %111

111:                                              ; preds = %130, %110
  %112 = load i32, ptr %38, align 4, !tbaa !39
  %113 = load i32, ptr %39, align 4, !tbaa !39
  %114 = icmp slt i32 %112, %113
  br i1 %114, label %116, label %115

115:                                              ; preds = %111
  call void @llvm.lifetime.end.p0(i64 4, ptr %38) #10
  br label %133

116:                                              ; preds = %111
  %117 = load ptr, ptr %35, align 8, !tbaa !50
  %118 = load i32, ptr %38, align 4, !tbaa !39
  %119 = sext i32 %118 to i64
  %120 = getelementptr inbounds float, ptr %117, i64 %119
  %121 = load float, ptr %120, align 4, !tbaa !69
  %122 = load ptr, ptr %24, align 8, !tbaa !44
  %123 = load i32, ptr %38, align 4, !tbaa !39
  %124 = sext i32 %123 to i64
  %125 = call noundef nonnull align 4 dereferenceable(4) ptr @_ZN4ncnn3MatixEm(ptr noundef nonnull align 8 dereferenceable(72) %122, i64 noundef %124)
  %126 = load float, ptr %125, align 4, !tbaa !69
  %127 = fmul fast float %121, %126
  %128 = load float, ptr %36, align 4, !tbaa !69
  %129 = fadd fast float %128, %127
  store float %129, ptr %36, align 4, !tbaa !69
  br label %130

130:                                              ; preds = %116
  %131 = load i32, ptr %38, align 4, !tbaa !39
  %132 = add nsw i32 %131, 1
  store i32 %132, ptr %38, align 4, !tbaa !39
  br label %111, !llvm.loop !95

133:                                              ; preds = %115
  %134 = load float, ptr %36, align 4, !tbaa !69
  %135 = call fast float @llvm.tanh.f32(float %134)
  store float %135, ptr %36, align 4, !tbaa !69
  %136 = load float, ptr %36, align 4, !tbaa !69
  %137 = load i32, ptr %33, align 4, !tbaa !39
  %138 = sext i32 %137 to i64
  %139 = call noundef nonnull align 4 dereferenceable(4) ptr @_ZN4ncnn3MatixEm(ptr noundef nonnull align 8 dereferenceable(72) %46, i64 noundef %138)
  store float %136, ptr %139, align 4, !tbaa !69
  call void @llvm.lifetime.end.p0(i64 4, ptr %36) #10
  call void @llvm.lifetime.end.p0(i64 8, ptr %35) #10
  call void @llvm.lifetime.end.p0(i64 8, ptr %34) #10
  br label %140

140:                                              ; preds = %133
  br label %141

141:                                              ; preds = %140
  %142 = load i32, ptr %25, align 4, !tbaa !39
  %143 = add nsw i32 %142, 1
  store i32 %143, ptr %25, align 4, !tbaa !39
  br label %68

144:                                              ; preds = %72
  br label %145

145:                                              ; preds = %144
  %146 = load ptr, ptr %11, align 8
  %147 = load i32, ptr %146, align 4, !tbaa !39
  call void @__kmpc_for_static_fini(ptr @1, i32 %147)
  call void @llvm.lifetime.end.p0(i64 4, ptr %33) #10
  call void @llvm.lifetime.end.p0(i64 4, ptr %32) #10
  call void @llvm.lifetime.end.p0(i64 4, ptr %31) #10
  call void @llvm.lifetime.end.p0(i64 4, ptr %30) #10
  call void @llvm.lifetime.end.p0(i64 4, ptr %29) #10
  br label %148

148:                                              ; preds = %145, %10
  call void @llvm.lifetime.end.p0(i64 4, ptr %27) #10
  call void @llvm.lifetime.end.p0(i64 4, ptr %26) #10
  call void @llvm.lifetime.end.p0(i64 4, ptr %25) #10
  ret void
}