; Function Attrs: alwaysinline norecurse nounwind uwtable
define internal void @_ZN4ncnnL3rnnERKNS_3MatERS0_iS2_S2_S2_S3_RKNS_6OptionE.omp_outlined(ptr noalias noundef readonly captures(none) %0, ptr noalias readnone captures(none) %1, ptr noundef nonnull readonly align 4 captures(none) dereferenceable(4) %2, ptr noundef nonnull readonly align 8 captures(none) dereferenceable(72) %3, ptr noundef nonnull readonly align 8 captures(none) dereferenceable(72) %4, ptr noundef nonnull readonly align 8 captures(none) dereferenceable(72) %5, ptr noundef nonnull readonly align 4 captures(none) dereferenceable(4) %6, ptr noundef nonnull readonly align 8 captures(none) dereferenceable(8) %7, ptr noundef nonnull readonly align 8 captures(none) dereferenceable(72) %8, ptr noundef nonnull readonly align 8 captures(none) dereferenceable(72) %9) #9 {
  %11 = alloca i32, align 4
  %12 = alloca i32, align 4
  %13 = alloca i32, align 4
  %14 = alloca i32, align 4
  %15 = load i32, ptr %2, align 4, !tbaa !172
  %16 = icmp sgt i32 %15, 0
  br i1 %16, label %17, label %92

17:                                               ; preds = %10
  %18 = add nsw i32 %15, -1
  call void @llvm.lifetime.start.p0(i64 4, ptr nonnull %11) #10
  store i32 0, ptr %11, align 4, !tbaa !172
  call void @llvm.lifetime.start.p0(i64 4, ptr nonnull %12) #10
  store i32 %18, ptr %12, align 4, !tbaa !172
  call void @llvm.lifetime.start.p0(i64 4, ptr nonnull %13) #10
  store i32 1, ptr %13, align 4, !tbaa !172
  call void @llvm.lifetime.start.p0(i64 4, ptr nonnull %14) #10
  store i32 0, ptr %14, align 4, !tbaa !172
  %19 = load i32, ptr %0, align 4, !tbaa !172
  call void @__kmpc_for_static_init_4(ptr nonnull @1, i32 %19, i32 34, ptr nonnull %14, ptr nonnull %11, ptr nonnull %12, ptr nonnull %13, i32 1, i32 1)
  %20 = load i32, ptr %12, align 4, !tbaa !172
  %21 = call i32 @llvm.smin.i32(i32 %20, i32 %18)
  store i32 %21, ptr %12, align 4, !tbaa !172
  %22 = load i32, ptr %11, align 4, !tbaa !172
  %.not48 = icmp sgt i32 %22, %21
  br i1 %.not48, label %._crit_edge52, label %.lr.ph51

.lr.ph51:                                         ; preds = %17
  %23 = load ptr, ptr %3, align 8, !tbaa !16
  %24 = getelementptr inbounds nuw i8, ptr %3, i64 44
  %25 = load i32, ptr %24, align 4, !tbaa !40
  %26 = sext i32 %25 to i64
  %27 = getelementptr inbounds nuw i8, ptr %3, i64 16
  %28 = load i64, ptr %27, align 8, !tbaa !37
  %factor.op.mul = mul i64 %28, %26
  %29 = load ptr, ptr %4, align 8, !tbaa !16
  %30 = getelementptr inbounds nuw i8, ptr %4, i64 44
  %31 = load i32, ptr %30, align 4, !tbaa !40
  %32 = sext i32 %31 to i64
  %33 = getelementptr inbounds nuw i8, ptr %4, i64 16
  %34 = load i64, ptr %33, align 8, !tbaa !37
  %factor.op.mul53 = mul i64 %34, %32
  %35 = load ptr, ptr %5, align 8, !tbaa !16
  %36 = load i32, ptr %6, align 4, !tbaa !172
  %37 = icmp sgt i32 %36, 0
  %38 = load ptr, ptr %7, align 8
  %39 = load i32, ptr %2, align 4, !tbaa !172
  %40 = icmp sgt i32 %39, 0
  %41 = load ptr, ptr %8, align 8
  %42 = load ptr, ptr %9, align 8, !tbaa !16
  %43 = sext i32 %22 to i64
  %44 = add nsw i32 %21, 1
  br i1 %37, label %.lr.ph51.split.us, label %.lr.ph51.split

.lr.ph51.split.us:                                ; preds = %.lr.ph51
  %wide.trip.count94 = zext nneg i32 %36 to i64
  br i1 %40, label %.lr.ph.us.us.preheader, label %.lr.ph.us

.lr.ph.us.us.preheader:                           ; preds = %.lr.ph51.split.us
  %wide.trip.count99 = zext nneg i32 %39 to i64
  br label %.lr.ph.us.us

.lr.ph.us.us:                                     ; preds = %.lr.ph.us.us.preheader, %._crit_edge.us.us
  %indvars.iv101 = phi i64 [ %43, %.lr.ph.us.us.preheader ], [ %indvars.iv.next102, %._crit_edge.us.us ]
  %.reass.us.us = mul i64 %factor.op.mul, %indvars.iv101
  %45 = getelementptr inbounds nuw i8, ptr %23, i64 %.reass.us.us
  %.reass54.us.us = mul i64 %factor.op.mul53, %indvars.iv101
  %46 = getelementptr inbounds nuw float, ptr %35, i64 %indvars.iv101
  %47 = load float, ptr %46, align 4, !tbaa !46
  br label %54

..preheader_crit_edge.us.us:                      ; preds = %..preheader_crit_edge.us.us.preheader, %..preheader_crit_edge.us.us
  %indvars.iv96 = phi i64 [ 0, %..preheader_crit_edge.us.us.preheader ], [ %indvars.iv.next97, %..preheader_crit_edge.us.us ]
  %.144.us.us = phi float [ %60, %..preheader_crit_edge.us.us.preheader ], [ %53, %..preheader_crit_edge.us.us ]
  %48 = getelementptr inbounds nuw float, ptr %61, i64 %indvars.iv96
  %49 = load float, ptr %48, align 4, !tbaa !46
  %50 = getelementptr inbounds nuw float, ptr %41, i64 %indvars.iv96
  %51 = load float, ptr %50, align 4, !tbaa !46
  %52 = fmul fast float %51, %49
  %53 = fadd fast float %52, %.144.us.us
  %indvars.iv.next97 = add nuw nsw i64 %indvars.iv96, 1
  %exitcond100.not = icmp eq i64 %indvars.iv.next97, %wide.trip.count99
  br i1 %exitcond100.not, label %._crit_edge.us.us, label %..preheader_crit_edge.us.us, !llvm.loop !189

54:                                               ; preds = %54, %.lr.ph.us.us
  %indvars.iv91 = phi i64 [ %indvars.iv.next92, %54 ], [ 0, %.lr.ph.us.us ]
  %.04042.us.us = phi float [ %60, %54 ], [ %47, %.lr.ph.us.us ]
  %55 = getelementptr inbounds nuw float, ptr %45, i64 %indvars.iv91
  %56 = load float, ptr %55, align 4, !tbaa !46
  %57 = getelementptr inbounds nuw float, ptr %38, i64 %indvars.iv91
  %58 = load float, ptr %57, align 4, !tbaa !46
  %59 = fmul fast float %58, %56
  %60 = fadd fast float %59, %.04042.us.us
  %indvars.iv.next92 = add nuw nsw i64 %indvars.iv91, 1
  %exitcond95.not = icmp eq i64 %indvars.iv.next92, %wide.trip.count94
  br i1 %exitcond95.not, label %..preheader_crit_edge.us.us.preheader, label %54, !llvm.loop !190

..preheader_crit_edge.us.us.preheader:            ; preds = %54
  %61 = getelementptr inbounds nuw i8, ptr %29, i64 %.reass54.us.us
  br label %..preheader_crit_edge.us.us

._crit_edge.us.us:                                ; preds = %..preheader_crit_edge.us.us
  %62 = call fast float @llvm.tanh.f32(float %53)
  %63 = getelementptr inbounds nuw float, ptr %42, i64 %indvars.iv101
  store float %62, ptr %63, align 4, !tbaa !46
  %indvars.iv.next102 = add nsw i64 %indvars.iv101, 1
  %lftr.wideiv104 = trunc i64 %indvars.iv.next102 to i32
  %exitcond105.not = icmp eq i32 %44, %lftr.wideiv104
  br i1 %exitcond105.not, label %._crit_edge52, label %.lr.ph.us.us

.lr.ph.us:                                        ; preds = %.lr.ph51.split.us, %..preheader_crit_edge.us
  %indvars.iv86 = phi i64 [ %indvars.iv.next87, %..preheader_crit_edge.us ], [ %43, %.lr.ph51.split.us ]
  %.reass.us = mul i64 %factor.op.mul, %indvars.iv86
  %64 = getelementptr inbounds nuw i8, ptr %23, i64 %.reass.us
  %65 = getelementptr inbounds nuw float, ptr %35, i64 %indvars.iv86
  %66 = load float, ptr %65, align 4, !tbaa !46
  br label %67

67:                                               ; preds = %.lr.ph.us, %67
  %indvars.iv81 = phi i64 [ 0, %.lr.ph.us ], [ %indvars.iv.next82, %67 ]
  %.04042.us = phi float [ %66, %.lr.ph.us ], [ %73, %67 ]
  %68 = getelementptr inbounds nuw float, ptr %64, i64 %indvars.iv81
  %69 = load float, ptr %68, align 4, !tbaa !46
  %70 = getelementptr inbounds nuw float, ptr %38, i64 %indvars.iv81
  %71 = load float, ptr %70, align 4, !tbaa !46
  %72 = fmul fast float %71, %69
  %73 = fadd fast float %72, %.04042.us
  %indvars.iv.next82 = add nuw nsw i64 %indvars.iv81, 1
  %exitcond85.not = icmp eq i64 %indvars.iv.next82, %wide.trip.count94
  br i1 %exitcond85.not, label %..preheader_crit_edge.us, label %67, !llvm.loop !190

..preheader_crit_edge.us:                         ; preds = %67
  %74 = call fast float @llvm.tanh.f32(float %73)
  %75 = getelementptr inbounds nuw float, ptr %42, i64 %indvars.iv86
  store float %74, ptr %75, align 4, !tbaa !46
  %indvars.iv.next87 = add nsw i64 %indvars.iv86, 1
  %lftr.wideiv89 = trunc i64 %indvars.iv.next87 to i32
  %exitcond90.not = icmp eq i32 %44, %lftr.wideiv89
  br i1 %exitcond90.not, label %._crit_edge52, label %.lr.ph.us

.lr.ph51.split:                                   ; preds = %.lr.ph51
  br i1 %40, label %.preheader.us55.preheader, label %.preheader

.preheader.us55.preheader:                        ; preds = %.lr.ph51.split
  %wide.trip.count = zext nneg i32 %39 to i64
  br label %.preheader.us55

.preheader.us55:                                  ; preds = %.preheader.us55.preheader, %._crit_edge.us63
  %indvars.iv76 = phi i64 [ %43, %.preheader.us55.preheader ], [ %indvars.iv.next77, %._crit_edge.us63 ]
  %.reass54.us57 = mul i64 %factor.op.mul53, %indvars.iv76
  %76 = getelementptr inbounds nuw i8, ptr %29, i64 %.reass54.us57
  %77 = getelementptr inbounds nuw float, ptr %35, i64 %indvars.iv76
  %78 = load float, ptr %77, align 4, !tbaa !46
  br label %79

79:                                               ; preds = %.preheader.us55, %79
  %indvars.iv72 = phi i64 [ 0, %.preheader.us55 ], [ %indvars.iv.next73, %79 ]
  %.144.us61 = phi float [ %78, %.preheader.us55 ], [ %85, %79 ]
  %80 = getelementptr inbounds nuw float, ptr %76, i64 %indvars.iv72
  %81 = load float, ptr %80, align 4, !tbaa !46
  %82 = getelementptr inbounds nuw float, ptr %41, i64 %indvars.iv72
  %83 = load float, ptr %82, align 4, !tbaa !46
  %84 = fmul fast float %83, %81
  %85 = fadd fast float %84, %.144.us61
  %indvars.iv.next73 = add nuw nsw i64 %indvars.iv72, 1
  %exitcond75.not = icmp eq i64 %indvars.iv.next73, %wide.trip.count
  br i1 %exitcond75.not, label %._crit_edge.us63, label %79, !llvm.loop !189

._crit_edge.us63:                                 ; preds = %79
  %86 = call fast float @llvm.tanh.f32(float %85)
  %87 = getelementptr inbounds nuw float, ptr %42, i64 %indvars.iv76
  store float %86, ptr %87, align 4, !tbaa !46
  %indvars.iv.next77 = add nsw i64 %indvars.iv76, 1
  %lftr.wideiv79 = trunc i64 %indvars.iv.next77 to i32
  %exitcond80.not = icmp eq i32 %44, %lftr.wideiv79
  br i1 %exitcond80.not, label %._crit_edge52, label %.preheader.us55

.preheader:                                       ; preds = %.lr.ph51.split, %.preheader
  %indvars.iv = phi i64 [ %indvars.iv.next, %.preheader ], [ %43, %.lr.ph51.split ]
  %88 = getelementptr inbounds nuw float, ptr %35, i64 %indvars.iv
  %89 = load float, ptr %88, align 4, !tbaa !46
  %90 = call fast float @llvm.tanh.f32(float %89)
  %91 = getelementptr inbounds nuw float, ptr %42, i64 %indvars.iv
  store float %90, ptr %91, align 4, !tbaa !46
  %indvars.iv.next = add nsw i64 %indvars.iv, 1
  %lftr.wideiv = trunc i64 %indvars.iv.next to i32
  %exitcond.not = icmp eq i32 %44, %lftr.wideiv
  br i1 %exitcond.not, label %._crit_edge52, label %.preheader

._crit_edge52:                                    ; preds = %.preheader, %._crit_edge.us63, %..preheader_crit_edge.us, %._crit_edge.us.us, %17
  call void @__kmpc_for_static_fini(ptr nonnull @1, i32 %19)
  call void @llvm.lifetime.end.p0(i64 4, ptr nonnull %14) #10
  call void @llvm.lifetime.end.p0(i64 4, ptr nonnull %13) #10
  call void @llvm.lifetime.end.p0(i64 4, ptr nonnull %12) #10
  call void @llvm.lifetime.end.p0(i64 4, ptr nonnull %11) #10
  br label %92

92:                                               ; preds = %._crit_edge52, %10
  ret void
}